target datalayout = "e-m:e-p270:32:32-p271:32:32-p272:64:64-i64:64-i128:128-f80:128-n8:16:32:64-S128"
target triple = "x86_64-pc-linux-gnu"

%"struct.rocksdb::aligned_storage<rocksdb::Random>::type" = type { [4 x i8] }
%"struct.std::hash" = type { i8 }
%"class.std::thread::id" = type { i64 }
%"class.rocksdb::Random" = type { i32 }

@_ZZN7rocksdb6Random14GetTLSInstanceEvE12tls_instance = internal thread_local global ptr null, align 8
@_ZZN7rocksdb6Random14GetTLSInstanceEvE18tls_instance_bytes = internal thread_local global %"struct.rocksdb::aligned_storage<rocksdb::Random>::type" zeroinitializer, align 4

; Function Attrs: mustprogress nounwind uwtable
define linkonce_odr noundef i32 @_ZN7rocksdb6Random8GoodSeedEj(i32 noundef %0) #4 comdat align 2 {
  %2 = alloca i32, align 4
  store i32 %0, ptr %2, align 4, !tbaa !15
  %3 = load i32, ptr %2, align 4, !tbaa !15
  %4 = and i32 %3, 2147483647
  %5 = icmp ne i32 %4, 0
  br i1 %5, label %6, label %9

6:                                                ; preds = %1
  %7 = load i32, ptr %2, align 4, !tbaa !15
  %8 = and i32 %7, 2147483647
  br label %10

9:                                                ; preds = %1
  br label %10

10:                                               ; preds = %9, %6
  %11 = phi i32 [ %8, %6 ], [ 1, %9 ]
  ret i32 %11
}

; Function Attrs: noinline noreturn nounwind uwtable
define linkonce_odr hidden void @__clang_call_terminate(ptr noundef %0) #6 comdat {
  %2 = call ptr @__cxa_begin_catch(ptr %0) #11
  call void @_ZSt9terminatev() #12
  unreachable
}

; Function Attrs: mustprogress nounwind uwtable
define linkonce_odr void @_ZNSt6thread2idC2Em(ptr noundef nonnull align 8 dereferenceable(8) %0, i64 noundef %1) unnamed_addr #4 comdat align 2 {
  %3 = alloca ptr, align 8
  %4 = alloca i64, align 8
  store ptr %0, ptr %3, align 8, !tbaa !13
  store i64 %1, ptr %4, align 8, !tbaa !9
  %5 = load ptr, ptr %3, align 8
  %6 = getelementptr inbounds nuw %"class.std::thread::id", ptr %5, i32 0, i32 0
  %7 = load i64, ptr %4, align 8, !tbaa !9
  store i64 %7, ptr %6, align 8, !tbaa !29
  ret void
}

; Function Attrs: mustprogress uwtable
define linkonce_odr void @_ZN7rocksdb6RandomC2Ej(ptr noundef nonnull align 4 dereferenceable(4) %0, i32 noundef %1) unnamed_addr #0 comdat align 2 {
  %3 = alloca ptr, align 8
  %4 = alloca i32, align 4
  store ptr %0, ptr %3, align 8, !tbaa !4
  store i32 %1, ptr %4, align 4, !tbaa !15
  %5 = load ptr, ptr %3, align 8
  %6 = getelementptr inbounds nuw %"class.rocksdb::Random", ptr %5, i32 0, i32 0
  %7 = load i32, ptr %4, align 4, !tbaa !15
  %8 = call noundef i32 @_ZN7rocksdb6Random8GoodSeedEj(i32 noundef %7)
  store i32 %8, ptr %6, align 4, !tbaa !17
  ret void
}

; Function Attrs: inlinehint mustprogress nounwind uwtable
define linkonce_odr i64 @_ZNSt11this_thread6get_idEv() #5 comdat personality ptr @__gxx_personality_v0 {
  %1 = alloca %"class.std::thread::id", align 8
  %2 = call i64 @pthread_self() #13
  invoke void @_ZNSt6thread2idC2Em(ptr noundef nonnull align 8 dereferenceable(8) %1, i64 noundef %2)
          to label %3 unwind label %6

3:                                                ; preds = %0
  %4 = getelementptr inbounds nuw %"class.std::thread::id", ptr %1, i32 0, i32 0
  %5 = load i64, ptr %4, align 8
  ret i64 %5

6:                                                ; preds = %0
  %7 = landingpad { ptr, i32 }
          catch ptr null
  %8 = extractvalue { ptr, i32 } %7, 0
  call void @__clang_call_terminate(ptr %8) #12
  unreachable
}

; Function Attrs: mustprogress uwtable
define noundef ptr @_ZN7rocksdb6Random14GetTLSInstanceEv() #0 align 2 {
  %1 = alloca ptr, align 8
  %2 = alloca i64, align 8
  %3 = alloca %"struct.std::hash", align 1
  %4 = alloca %"class.std::thread::id", align 8
  call void @llvm.lifetime.start.p0(i64 8, ptr %1) #11
  %5 = call align 8 ptr @llvm.threadlocal.address.p0(ptr align 8 @_ZZN7rocksdb6Random14GetTLSInstanceEvE12tls_instance)
  %6 = load ptr, ptr %5, align 8, !tbaa !4
  store ptr %6, ptr %1, align 8, !tbaa !4
  %7 = load ptr, ptr %1, align 8, !tbaa !4
  %8 = icmp eq ptr %7, null
  %9 = zext i1 %8 to i64
  %10 = call i64 @llvm.expect.i64(i64 %9, i64 0)
  %11 = icmp ne i64 %10, 0
  br i1 %11, label %12, label %21

12:                                               ; preds = %0
  call void @llvm.lifetime.start.p0(i64 8, ptr %2) #11
  call void @llvm.lifetime.start.p0(i64 1, ptr %3) #11
  call void @llvm.lifetime.start.p0(i64 8, ptr %4) #11
  %13 = call i64 @_ZNSt11this_thread6get_idEv() #11
  %14 = getelementptr inbounds nuw %"class.std::thread::id", ptr %4, i32 0, i32 0
  store i64 %13, ptr %14, align 8
  %15 = call noundef i64 @_ZNKSt4hashINSt6thread2idEEclERKS1_(ptr noundef nonnull align 1 dereferenceable(1) %3, ptr noundef nonnull align 8 dereferenceable(8) %4) #11
  call void @llvm.lifetime.end.p0(i64 8, ptr %4) #11
  call void @llvm.lifetime.end.p0(i64 1, ptr %3) #11
  store i64 %15, ptr %2, align 8, !tbaa !9
  %16 = call align 4 ptr @llvm.threadlocal.address.p0(ptr align 4 @_ZZN7rocksdb6Random14GetTLSInstanceEvE18tls_instance_bytes)
  %17 = load i64, ptr %2, align 8, !tbaa !9
  %18 = trunc i64 %17 to i32
  call void @_ZN7rocksdb6RandomC2Ej(ptr noundef nonnull align 4 dereferenceable(4) %16, i32 noundef %18)
  store ptr %16, ptr %1, align 8, !tbaa !4
  %19 = load ptr, ptr %1, align 8, !tbaa !4
  %20 = call align 8 ptr @llvm.threadlocal.address.p0(ptr align 8 @_ZZN7rocksdb6Random14GetTLSInstanceEvE12tls_instance)
  store ptr %19, ptr %20, align 8, !tbaa !4
  call void @llvm.lifetime.end.p0(i64 8, ptr %2) #11
  br label %21

21:                                               ; preds = %12, %0
  %22 = load ptr, ptr %1, align 8, !tbaa !4
  call void @llvm.lifetime.end.p0(i64 8, ptr %1) #11
  ret ptr %22
}