; Function Attrs: mustprogress nounwind uwtable
define noundef nonnull ptr @_ZN7rocksdb6Random14GetTLSInstanceEv() local_unnamed_addr #0 align 2 personality ptr @__gxx_personality_v0 {
  %1 = alloca %"struct.std::hash", align 1
  %2 = alloca %"class.std::thread::id", align 8
  %3 = tail call align 8 ptr @llvm.threadlocal.address.p0(ptr align 8 @_ZZN7rocksdb6Random14GetTLSInstanceEvE12tls_instance)
  %4 = load ptr, ptr %3, align 8, !tbaa !4
  %5 = icmp eq ptr %4, null
  br i1 %5, label %6, label %13, !prof !9

6:                                                ; preds = %0
  call void @llvm.lifetime.start.p0(i64 1, ptr nonnull %1) #11
  call void @llvm.lifetime.start.p0(i64 8, ptr nonnull %2) #11
  %7 = tail call i64 @pthread_self() #12
  store i64 %7, ptr %2, align 8
  %8 = call noundef i64 @_ZNKSt4hashINSt6thread2idEEclERKS1_(ptr noundef nonnull align 1 dereferenceable(1) %1, ptr noundef nonnull align 8 dereferenceable(8) %2) #11
  call void @llvm.lifetime.end.p0(i64 8, ptr nonnull %2) #11
  call void @llvm.lifetime.end.p0(i64 1, ptr nonnull %1) #11
  %9 = call align 4 ptr @llvm.threadlocal.address.p0(ptr align 4 @_ZZN7rocksdb6Random14GetTLSInstanceEvE18tls_instance_bytes)
  %10 = trunc i64 %8 to i32
  %11 = and i32 %10, 2147483647
  %12 = call noundef i32 @llvm.umax.i32(i32 %11, i32 1)
  store i32 %12, ptr %9, align 4, !tbaa !10
  store ptr %9, ptr %3, align 8, !tbaa !4
  br label %13

13:                                               ; preds = %6, %0
  %.0 = phi ptr [ %9, %6 ], [ %4, %0 ]
  ret ptr %.0
}